target datalayout = "e-m:e-p270:32:32-p271:32:32-p272:64:64-i64:64-i128:128-f80:128-n8:16:32:64-S128"
target triple = "x86_64-pc-linux-gnu"

%"class.std::shared_ptr" = type { %"class.std::__shared_ptr" }
%"class.std::__shared_ptr" = type { ptr, %"class.std::__shared_count" }
%"class.std::__shared_count" = type { ptr }
%"struct.open_spiel::quoridor::Move" = type { i32, i32, i32, i32 }
%"class.open_spiel::quoridor::QuoridorState" = type <{ %"class.open_spiel::State.base", [4 x i8], %"class.std::vector.9", %"class.std::vector.9", %"class.std::vector.14", %"class.std::vector.14", %"class.std::vector.19", i8, [3 x i8], i32, i8, [3 x i8], i32, i32, i32, i8, [3 x i8], %"struct.open_spiel::quoridor::Move", [4 x i8] }>
%"class.open_spiel::State.base" = type <{ ptr, %"class.std::shared_ptr", i32, i32, %"class.std::vector", i32 }>
%"class.std::vector" = type { %"struct.std::_Vector_base" }
%"struct.std::_Vector_base" = type { %"struct.std::_Vector_base<open_spiel::State::PlayerAction, std::allocator<open_spiel::State::PlayerAction>>::_Vector_impl" }
%"struct.std::_Vector_base<open_spiel::State::PlayerAction, std::allocator<open_spiel::State::PlayerAction>>::_Vector_impl" = type { %"struct.std::_Vector_base<open_spiel::State::PlayerAction, std::allocator<open_spiel::State::PlayerAction>>::_Vector_impl_data" }
%"struct.std::_Vector_base<open_spiel::State::PlayerAction, std::allocator<open_spiel::State::PlayerAction>>::_Vector_impl_data" = type { ptr, ptr, ptr }
%"class.std::vector.9" = type { %"struct.std::_Vector_base.10" }
%"struct.std::_Vector_base.10" = type { %"struct.std::_Vector_base<open_spiel::quoridor::QuoridorPlayer, std::allocator<open_spiel::quoridor::QuoridorPlayer>>::_Vector_impl" }
%"struct.std::_Vector_base<open_spiel::quoridor::QuoridorPlayer, std::allocator<open_spiel::quoridor::QuoridorPlayer>>::_Vector_impl" = type { %"struct.std::_Vector_base<open_spiel::quoridor::QuoridorPlayer, std::allocator<open_spiel::quoridor::QuoridorPlayer>>::_Vector_impl_data" }
%"struct.std::_Vector_base<open_spiel::quoridor::QuoridorPlayer, std::allocator<open_spiel::quoridor::QuoridorPlayer>>::_Vector_impl_data" = type { ptr, ptr, ptr }
%"class.std::vector.14" = type { %"struct.std::_Vector_base.15" }
%"struct.std::_Vector_base.15" = type { %"struct.std::_Vector_base<int, std::allocator<int>>::_Vector_impl" }
%"struct.std::_Vector_base<int, std::allocator<int>>::_Vector_impl" = type { %"struct.std::_Vector_base<int, std::allocator<int>>::_Vector_impl_data" }
%"struct.std::_Vector_base<int, std::allocator<int>>::_Vector_impl_data" = type { ptr, ptr, ptr }
%"class.std::vector.19" = type { %"struct.std::_Vector_base.20" }
%"struct.std::_Vector_base.20" = type { %"struct.std::_Vector_base<open_spiel::quoridor::Move, std::allocator<open_spiel::quoridor::Move>>::_Vector_impl" }
%"struct.std::_Vector_base<open_spiel::quoridor::Move, std::allocator<open_spiel::quoridor::Move>>::_Vector_impl" = type { %"struct.std::_Vector_base<open_spiel::quoridor::Move, std::allocator<open_spiel::quoridor::Move>>::_Vector_impl_data" }
%"struct.std::_Vector_base<open_spiel::quoridor::Move, std::allocator<open_spiel::quoridor::Move>>::_Vector_impl_data" = type { ptr, ptr, ptr }

; Function Attrs: mustprogress nounwind uwtable
define linkonce_odr void @_ZN10open_spiel8quoridor4MoveC2Eiii(ptr noundef nonnull align 4 dereferenceable(16) %0, i32 noundef %1, i32 noundef %2, i32 noundef %3) unnamed_addr #5 comdat align 2 {
  %5 = alloca ptr, align 8
  %6 = alloca i32, align 4
  %7 = alloca i32, align 4
  %8 = alloca i32, align 4
  store ptr %0, ptr %5, align 8
  store i32 %1, ptr %6, align 4
  store i32 %2, ptr %7, align 4
  store i32 %3, ptr %8, align 4
  %9 = load ptr, ptr %5, align 8
  %10 = getelementptr inbounds nuw %"struct.open_spiel::quoridor::Move", ptr %9, i32 0, i32 0
  %11 = load i32, ptr %6, align 4
  store i32 %11, ptr %10, align 4
  %12 = getelementptr inbounds nuw %"struct.open_spiel::quoridor::Move", ptr %9, i32 0, i32 1
  %13 = load i32, ptr %7, align 4
  store i32 %13, ptr %12, align 4
  %14 = getelementptr inbounds nuw %"struct.open_spiel::quoridor::Move", ptr %9, i32 0, i32 2
  %15 = load i32, ptr %6, align 4
  %16 = load i32, ptr %7, align 4
  %17 = load i32, ptr %8, align 4
  %18 = mul nsw i32 %16, %17
  %19 = add nsw i32 %15, %18
  store i32 %19, ptr %14, align 4
  %20 = getelementptr inbounds nuw %"struct.open_spiel::quoridor::Move", ptr %9, i32 0, i32 3
  %21 = load i32, ptr %8, align 4
  store i32 %21, ptr %20, align 4
  ret void
}

; Function Attrs: mustprogress nounwind uwtable
define linkonce_odr noundef nonnull align 4 dereferenceable(4) ptr @_ZNSt6vectorIiSaIiEEixEm(ptr noundef nonnull align 8 dereferenceable(24) %0, i64 noundef %1) #5 comdat align 2 {
  %3 = alloca ptr, align 8
  %4 = alloca i64, align 8
  store ptr %0, ptr %3, align 8
  store i64 %1, ptr %4, align 8
  %5 = load ptr, ptr %3, align 8
  %6 = getelementptr inbounds nuw %"struct.std::_Vector_base.15", ptr %5, i32 0, i32 0
  %7 = getelementptr inbounds nuw %"struct.std::_Vector_base<int, std::allocator<int>>::_Vector_impl_data", ptr %6, i32 0, i32 0
  %8 = load ptr, ptr %7, align 8
  %9 = load i64, ptr %4, align 8
  %10 = getelementptr inbounds i32, ptr %8, i64 %9
  ret ptr %10
}

; Function Attrs: mustprogress nounwind uwtable
define linkonce_odr noundef nonnull align 4 dereferenceable(16) ptr @_ZNSt6vectorIN10open_spiel8quoridor4MoveESaIS2_EEixEm(ptr noundef nonnull align 8 dereferenceable(24) %0, i64 noundef %1) #5 comdat align 2 {
  %3 = alloca ptr, align 8
  %4 = alloca i64, align 8
  store ptr %0, ptr %3, align 8
  store i64 %1, ptr %4, align 8
  %5 = load ptr, ptr %3, align 8
  %6 = getelementptr inbounds nuw %"struct.std::_Vector_base.20", ptr %5, i32 0, i32 0
  %7 = getelementptr inbounds nuw %"struct.std::_Vector_base<open_spiel::quoridor::Move, std::allocator<open_spiel::quoridor::Move>>::_Vector_impl_data", ptr %6, i32 0, i32 0
  %8 = load ptr, ptr %7, align 8
  %9 = load i64, ptr %4, align 8
  %10 = getelementptr inbounds %"struct.open_spiel::quoridor::Move", ptr %8, i64 %9
  ret ptr %10
}

; Function Attrs: mustprogress uwtable
define linkonce_odr { i64, i64 } @_ZNK10open_spiel8quoridor13QuoridorState7GetMoveEii(ptr noundef nonnull align 8 dereferenceable(228) %0, i32 noundef %1, i32 noundef %2) #4 comdat align 2 {
  %4 = alloca %"struct.open_spiel::quoridor::Move", align 4
  %5 = alloca ptr, align 8
  %6 = alloca i32, align 4
  %7 = alloca i32, align 4
  store ptr %0, ptr %5, align 8
  store i32 %1, ptr %6, align 4
  store i32 %2, ptr %7, align 4
  %8 = load ptr, ptr %5, align 8
  %9 = load i32, ptr %6, align 4
  %10 = load i32, ptr %7, align 4
  %11 = getelementptr inbounds nuw %"class.open_spiel::quoridor::QuoridorState", ptr %8, i32 0, i32 14
  %12 = load i32, ptr %11, align 4
  call void @_ZN10open_spiel8quoridor4MoveC2Eiii(ptr noundef nonnull align 4 dereferenceable(16) %4, i32 noundef %9, i32 noundef %10, i32 noundef %12)
  %13 = load { i64, i64 }, ptr %4, align 4
  ret { i64, i64 } %13
}

; Function Attrs: mustprogress uwtable
define void @_ZN10open_spiel8quoridor13QuoridorState16InitializePlayerENS0_14QuoridorPlayerE(ptr noundef nonnull align 8 dereferenceable(228) %0, i8 noundef zeroext %1) #4 align 2 {
  %3 = alloca ptr, align 8
  %4 = alloca i8, align 1
  %5 = alloca i32, align 4
  %6 = alloca %"struct.open_spiel::quoridor::Move", align 4
  %7 = alloca %"struct.open_spiel::quoridor::Move", align 4
  %8 = alloca %"struct.open_spiel::quoridor::Move", align 4
  %9 = alloca %"struct.open_spiel::quoridor::Move", align 4
  %10 = alloca %"struct.open_spiel::quoridor::Move", align 4
  %11 = alloca %"struct.open_spiel::quoridor::Move", align 4
  %12 = alloca %"struct.open_spiel::quoridor::Move", align 4
  %13 = alloca %"struct.open_spiel::quoridor::Move", align 4
  store ptr %0, ptr %3, align 8
  store i8 %1, ptr %4, align 1
  %14 = load ptr, ptr %3, align 8
  %15 = getelementptr inbounds nuw %"class.open_spiel::quoridor::QuoridorState", ptr %14, i32 0, i32 13
  %16 = load i32, ptr %15, align 8
  %17 = getelementptr inbounds nuw %"class.open_spiel::quoridor::QuoridorState", ptr %14, i32 0, i32 13
  %18 = load i32, ptr %17, align 8
  %19 = srem i32 %18, 2
  %20 = sub nsw i32 %16, %19
  store i32 %20, ptr %5, align 4
  %21 = load i8, ptr %4, align 1
  %22 = zext i8 %21 to i32
  %23 = icmp eq i32 %22, 0
  br i1 %23, label %24, label %51

24:                                               ; preds = %2
  %25 = load i32, ptr %5, align 4
  %26 = getelementptr inbounds nuw %"class.open_spiel::quoridor::QuoridorState", ptr %14, i32 0, i32 14
  %27 = load i32, ptr %26, align 4
  %28 = sub nsw i32 %27, 1
  %29 = call { i64, i64 } @_ZNK10open_spiel8quoridor13QuoridorState7GetMoveEii(ptr noundef nonnull align 8 dereferenceable(228) %14, i32 noundef %25, i32 noundef %28)
  %30 = getelementptr inbounds nuw { i64, i64 }, ptr %6, i32 0, i32 0
  %31 = extractvalue { i64, i64 } %29, 0
  store i64 %31, ptr %30, align 4
  %32 = getelementptr inbounds nuw { i64, i64 }, ptr %6, i32 0, i32 1
  %33 = extractvalue { i64, i64 } %29, 1
  store i64 %33, ptr %32, align 4
  %34 = getelementptr inbounds nuw %"class.open_spiel::quoridor::QuoridorState", ptr %14, i32 0, i32 6
  %35 = load i8, ptr %4, align 1
  %36 = zext i8 %35 to i64
  %37 = call noundef nonnull align 4 dereferenceable(16) ptr @_ZNSt6vectorIN10open_spiel8quoridor4MoveESaIS2_EEixEm(ptr noundef nonnull align 8 dereferenceable(24) %34, i64 noundef %36) #3
  call void @llvm.memcpy.p0.p0.i64(ptr align 4 %37, ptr align 4 %6, i64 16, i1 false)
  %38 = getelementptr inbounds nuw %"class.open_spiel::quoridor::QuoridorState", ptr %14, i32 0, i32 6
  %39 = load i8, ptr %4, align 1
  %40 = zext i8 %39 to i64
  %41 = call noundef nonnull align 4 dereferenceable(16) ptr @_ZNSt6vectorIN10open_spiel8quoridor4MoveESaIS2_EEixEm(ptr noundef nonnull align 8 dereferenceable(24) %38, i64 noundef %40) #3
  call void @llvm.memcpy.p0.p0.i64(ptr align 4 %7, ptr align 4 %41, i64 16, i1 false)
  %42 = load i8, ptr %4, align 1
  %43 = getelementptr inbounds nuw { i64, i64 }, ptr %7, i32 0, i32 0
  %44 = load i64, ptr %43, align 4
  %45 = getelementptr inbounds nuw { i64, i64 }, ptr %7, i32 0, i32 1
  %46 = load i64, ptr %45, align 4
  call void @_ZN10open_spiel8quoridor13QuoridorState9SetPlayerENS0_4MoveENS0_14QuoridorPlayerEi(ptr noundef nonnull align 8 dereferenceable(228) %14, i64 %44, i64 %46, i8 noundef zeroext %42, i32 noundef 5)
  %47 = getelementptr inbounds nuw %"class.open_spiel::quoridor::QuoridorState", ptr %14, i32 0, i32 5
  %48 = load i8, ptr %4, align 1
  %49 = zext i8 %48 to i64
  %50 = call noundef nonnull align 4 dereferenceable(4) ptr @_ZNSt6vectorIiSaIiEEixEm(ptr noundef nonnull align 8 dereferenceable(24) %47, i64 noundef %49) #3
  store i32 0, ptr %50, align 4
  br label %143

51:                                               ; preds = %2
  %52 = load i8, ptr %4, align 1
  %53 = zext i8 %52 to i32
  %54 = icmp eq i32 %53, 1
  br i1 %54, label %55, label %81

55:                                               ; preds = %51
  %56 = load i32, ptr %5, align 4
  %57 = call { i64, i64 } @_ZNK10open_spiel8quoridor13QuoridorState7GetMoveEii(ptr noundef nonnull align 8 dereferenceable(228) %14, i32 noundef %56, i32 noundef 0)
  %58 = getelementptr inbounds nuw { i64, i64 }, ptr %8, i32 0, i32 0
  %59 = extractvalue { i64, i64 } %57, 0
  store i64 %59, ptr %58, align 4
  %60 = getelementptr inbounds nuw { i64, i64 }, ptr %8, i32 0, i32 1
  %61 = extractvalue { i64, i64 } %57, 1
  store i64 %61, ptr %60, align 4
  %62 = getelementptr inbounds nuw %"class.open_spiel::quoridor::QuoridorState", ptr %14, i32 0, i32 6
  %63 = load i8, ptr %4, align 1
  %64 = zext i8 %63 to i64
  %65 = call noundef nonnull align 4 dereferenceable(16) ptr @_ZNSt6vectorIN10open_spiel8quoridor4MoveESaIS2_EEixEm(ptr noundef nonnull align 8 dereferenceable(24) %62, i64 noundef %64) #3
  call void @llvm.memcpy.p0.p0.i64(ptr align 4 %65, ptr align 4 %8, i64 16, i1 false)
  %66 = getelementptr inbounds nuw %"class.open_spiel::quoridor::QuoridorState", ptr %14, i32 0, i32 6
  %67 = load i8, ptr %4, align 1
  %68 = zext i8 %67 to i64
  %69 = call noundef nonnull align 4 dereferenceable(16) ptr @_ZNSt6vectorIN10open_spiel8quoridor4MoveESaIS2_EEixEm(ptr noundef nonnull align 8 dereferenceable(24) %66, i64 noundef %68) #3
  call void @llvm.memcpy.p0.p0.i64(ptr align 4 %9, ptr align 4 %69, i64 16, i1 false)
  %70 = getelementptr inbounds nuw { i64, i64 }, ptr %9, i32 0, i32 0
  %71 = load i64, ptr %70, align 4
  %72 = getelementptr inbounds nuw { i64, i64 }, ptr %9, i32 0, i32 1
  %73 = load i64, ptr %72, align 4
  call void @_ZN10open_spiel8quoridor13QuoridorState9SetPlayerENS0_4MoveENS0_14QuoridorPlayerEi(ptr noundef nonnull align 8 dereferenceable(228) %14, i64 %71, i64 %73, i8 noundef zeroext 1, i32 noundef 5)
  %74 = getelementptr inbounds nuw %"class.open_spiel::quoridor::QuoridorState", ptr %14, i32 0, i32 14
  %75 = load i32, ptr %74, align 4
  %76 = sub nsw i32 %75, 1
  %77 = getelementptr inbounds nuw %"class.open_spiel::quoridor::QuoridorState", ptr %14, i32 0, i32 5
  %78 = load i8, ptr %4, align 1
  %79 = zext i8 %78 to i64
  %80 = call noundef nonnull align 4 dereferenceable(4) ptr @_ZNSt6vectorIiSaIiEEixEm(ptr noundef nonnull align 8 dereferenceable(24) %77, i64 noundef %79) #3
  store i32 %76, ptr %80, align 4
  br label %143

81:                                               ; preds = %51
  %82 = load i8, ptr %4, align 1
  %83 = zext i8 %82 to i32
  %84 = icmp eq i32 %83, 2
  br i1 %84, label %85, label %112

85:                                               ; preds = %81
  %86 = load i32, ptr %5, align 4
  %87 = call { i64, i64 } @_ZNK10open_spiel8quoridor13QuoridorState7GetMoveEii(ptr noundef nonnull align 8 dereferenceable(228) %14, i32 noundef 0, i32 noundef %86)
  %88 = getelementptr inbounds nuw { i64, i64 }, ptr %10, i32 0, i32 0
  %89 = extractvalue { i64, i64 } %87, 0
  store i64 %89, ptr %88, align 4
  %90 = getelementptr inbounds nuw { i64, i64 }, ptr %10, i32 0, i32 1
  %91 = extractvalue { i64, i64 } %87, 1
  store i64 %91, ptr %90, align 4
  %92 = getelementptr inbounds nuw %"class.open_spiel::quoridor::QuoridorState", ptr %14, i32 0, i32 6
  %93 = load i8, ptr %4, align 1
  %94 = zext i8 %93 to i64
  %95 = call noundef nonnull align 4 dereferenceable(16) ptr @_ZNSt6vectorIN10open_spiel8quoridor4MoveESaIS2_EEixEm(ptr noundef nonnull align 8 dereferenceable(24) %92, i64 noundef %94) #3
  call void @llvm.memcpy.p0.p0.i64(ptr align 4 %95, ptr align 4 %10, i64 16, i1 false)
  %96 = getelementptr inbounds nuw %"class.open_spiel::quoridor::QuoridorState", ptr %14, i32 0, i32 6
  %97 = load i8, ptr %4, align 1
  %98 = zext i8 %97 to i64
  %99 = call noundef nonnull align 4 dereferenceable(16) ptr @_ZNSt6vectorIN10open_spiel8quoridor4MoveESaIS2_EEixEm(ptr noundef nonnull align 8 dereferenceable(24) %96, i64 noundef %98) #3
  call void @llvm.memcpy.p0.p0.i64(ptr align 4 %11, ptr align 4 %99, i64 16, i1 false)
  %100 = load i8, ptr %4, align 1
  %101 = getelementptr inbounds nuw { i64, i64 }, ptr %11, i32 0, i32 0
  %102 = load i64, ptr %101, align 4
  %103 = getelementptr inbounds nuw { i64, i64 }, ptr %11, i32 0, i32 1
  %104 = load i64, ptr %103, align 4
  call void @_ZN10open_spiel8quoridor13QuoridorState9SetPlayerENS0_4MoveENS0_14QuoridorPlayerEi(ptr noundef nonnull align 8 dereferenceable(228) %14, i64 %102, i64 %104, i8 noundef zeroext %100, i32 noundef 5)
  %105 = getelementptr inbounds nuw %"class.open_spiel::quoridor::QuoridorState", ptr %14, i32 0, i32 14
  %106 = load i32, ptr %105, align 4
  %107 = sub nsw i32 %106, 1
  %108 = getelementptr inbounds nuw %"class.open_spiel::quoridor::QuoridorState", ptr %14, i32 0, i32 5
  %109 = load i8, ptr %4, align 1
  %110 = zext i8 %109 to i64
  %111 = call noundef nonnull align 4 dereferenceable(4) ptr @_ZNSt6vectorIiSaIiEEixEm(ptr noundef nonnull align 8 dereferenceable(24) %108, i64 noundef %110) #3
  store i32 %107, ptr %111, align 4
  br label %143

112:                                              ; preds = %81
  %113 = load i8, ptr %4, align 1
  %114 = zext i8 %113 to i32
  %115 = icmp eq i32 %114, 3
  br i1 %115, label %116, label %143

116:                                              ; preds = %112
  %117 = getelementptr inbounds nuw %"class.open_spiel::quoridor::QuoridorState", ptr %14, i32 0, i32 14
  %118 = load i32, ptr %117, align 4
  %119 = sub nsw i32 %118, 1
  %120 = load i32, ptr %5, align 4
  %121 = call { i64, i64 } @_ZNK10open_spiel8quoridor13QuoridorState7GetMoveEii(ptr noundef nonnull align 8 dereferenceable(228) %14, i32 noundef %119, i32 noundef %120)
  %122 = getelementptr inbounds nuw { i64, i64 }, ptr %12, i32 0, i32 0
  %123 = extractvalue { i64, i64 } %121, 0
  store i64 %123, ptr %122, align 4
  %124 = getelementptr inbounds nuw { i64, i64 }, ptr %12, i32 0, i32 1
  %125 = extractvalue { i64, i64 } %121, 1
  store i64 %125, ptr %124, align 4
  %126 = getelementptr inbounds nuw %"class.open_spiel::quoridor::QuoridorState", ptr %14, i32 0, i32 6
  %127 = load i8, ptr %4, align 1
  %128 = zext i8 %127 to i64
  %129 = call noundef nonnull align 4 dereferenceable(16) ptr @_ZNSt6vectorIN10open_spiel8quoridor4MoveESaIS2_EEixEm(ptr noundef nonnull align 8 dereferenceable(24) %126, i64 noundef %128) #3
  call void @llvm.memcpy.p0.p0.i64(ptr align 4 %129, ptr align 4 %12, i64 16, i1 false)
  %130 = getelementptr inbounds nuw %"class.open_spiel::quoridor::QuoridorState", ptr %14, i32 0, i32 6
  %131 = load i8, ptr %4, align 1
  %132 = zext i8 %131 to i64
  %133 = call noundef nonnull align 4 dereferenceable(16) ptr @_ZNSt6vectorIN10open_spiel8quoridor4MoveESaIS2_EEixEm(ptr noundef nonnull align 8 dereferenceable(24) %130, i64 noundef %132) #3
  call void @llvm.memcpy.p0.p0.i64(ptr align 4 %13, ptr align 4 %133, i64 16, i1 false)
  %134 = load i8, ptr %4, align 1
  %135 = getelementptr inbounds nuw { i64, i64 }, ptr %13, i32 0, i32 0
  %136 = load i64, ptr %135, align 4
  %137 = getelementptr inbounds nuw { i64, i64 }, ptr %13, i32 0, i32 1
  %138 = load i64, ptr %137, align 4
  call void @_ZN10open_spiel8quoridor13QuoridorState9SetPlayerENS0_4MoveENS0_14QuoridorPlayerEi(ptr noundef nonnull align 8 dereferenceable(228) %14, i64 %136, i64 %138, i8 noundef zeroext %134, i32 noundef 5)
  %139 = getelementptr inbounds nuw %"class.open_spiel::quoridor::QuoridorState", ptr %14, i32 0, i32 5
  %140 = load i8, ptr %4, align 1
  %141 = zext i8 %140 to i64
  %142 = call noundef nonnull align 4 dereferenceable(4) ptr @_ZNSt6vectorIiSaIiEEixEm(ptr noundef nonnull align 8 dereferenceable(24) %139, i64 noundef %141) #3
  store i32 0, ptr %142, align 4
  br label %143

143:                                              ; preds = %116, %112, %85, %55, %24
  ret void
}