; Function Attrs: mustprogress uwtable
define void @_ZN10open_spiel8quoridor13QuoridorState16InitializePlayerENS0_14QuoridorPlayerE(ptr noundef nonnull align 8 dereferenceable(228) %0, i8 noundef zeroext %1) local_unnamed_addr #3 align 2 {
  %3 = getelementptr inbounds nuw i8, ptr %0, i64 200
  %4 = load i32, ptr %3, align 8
  %5 = srem i32 %4, 2
  %6 = sub nsw i32 %4, %5
  switch i8 %1, label %59 [
    i8 0, label %7
    i8 1, label %18
    i8 2, label %31
    i8 3, label %45
  ]

7:                                                ; preds = %2
  %8 = getelementptr inbounds nuw i8, ptr %0, i64 204
  %9 = load i32, ptr %8, align 4
  %10 = add nsw i32 %9, -1
  %11 = mul nsw i32 %10, %9
  %12 = add nsw i32 %11, %6
  %.sroa.2.0.insert.ext.i = zext i32 %10 to i64
  %.sroa.2.0.insert.shift.i = shl nuw i64 %.sroa.2.0.insert.ext.i, 32
  %.sroa.0.0.insert.ext.i = zext i32 %6 to i64
  %.sroa.0.0.insert.insert.i = or disjoint i64 %.sroa.2.0.insert.shift.i, %.sroa.0.0.insert.ext.i
  %.sroa.5.8.insert.ext.i = zext i32 %9 to i64
  %.sroa.5.8.insert.shift.i = shl nuw i64 %.sroa.5.8.insert.ext.i, 32
  %.sroa.3.8.insert.ext.i = zext i32 %12 to i64
  %.sroa.3.8.insert.insert.i = or disjoint i64 %.sroa.5.8.insert.shift.i, %.sroa.3.8.insert.ext.i
  %13 = getelementptr inbounds nuw i8, ptr %0, i64 160
  %14 = load ptr, ptr %13, align 8
  store i64 %.sroa.0.0.insert.insert.i, ptr %14, align 4
  %.sroa.214.0..sroa_idx = getelementptr inbounds nuw i8, ptr %14, i64 8
  store i64 %.sroa.3.8.insert.insert.i, ptr %.sroa.214.0..sroa_idx, align 4
  %15 = load ptr, ptr %13, align 8
  %.sroa.011.0.copyload = load i64, ptr %15, align 4
  %.sroa.212.0..sroa_idx = getelementptr inbounds nuw i8, ptr %15, i64 8
  %.sroa.212.0.copyload = load i64, ptr %.sroa.212.0..sroa_idx, align 4
  tail call void @_ZN10open_spiel8quoridor13QuoridorState9SetPlayerENS0_4MoveENS0_14QuoridorPlayerEi(ptr noundef nonnull align 8 dereferenceable(228) %0, i64 %.sroa.011.0.copyload, i64 %.sroa.212.0.copyload, i8 noundef zeroext 0, i32 noundef 5)
  %16 = getelementptr inbounds nuw i8, ptr %0, i64 136
  %17 = load ptr, ptr %16, align 8
  store i32 0, ptr %17, align 4
  br label %59

18:                                               ; preds = %2
  %19 = getelementptr inbounds nuw i8, ptr %0, i64 204
  %20 = load i32, ptr %19, align 4
  %.sroa.0.0.insert.ext.i37 = zext i32 %6 to i64
  %.sroa.5.8.insert.ext.i40 = zext i32 %20 to i64
  %.sroa.5.8.insert.shift.i41 = shl nuw i64 %.sroa.5.8.insert.ext.i40, 32
  %.sroa.3.8.insert.insert.i43 = or disjoint i64 %.sroa.5.8.insert.shift.i41, %.sroa.0.0.insert.ext.i37
  %21 = getelementptr inbounds nuw i8, ptr %0, i64 160
  %22 = load ptr, ptr %21, align 8
  %23 = getelementptr inbounds nuw i8, ptr %22, i64 16
  store i64 %.sroa.0.0.insert.ext.i37, ptr %23, align 4
  %.sroa.210.0..sroa_idx = getelementptr inbounds nuw i8, ptr %22, i64 24
  store i64 %.sroa.3.8.insert.insert.i43, ptr %.sroa.210.0..sroa_idx, align 4
  %24 = load ptr, ptr %21, align 8
  %25 = getelementptr inbounds nuw i8, ptr %24, i64 16
  %.sroa.07.0.copyload = load i64, ptr %25, align 4
  %.sroa.28.0..sroa_idx = getelementptr inbounds nuw i8, ptr %24, i64 24
  %.sroa.28.0.copyload = load i64, ptr %.sroa.28.0..sroa_idx, align 4
  tail call void @_ZN10open_spiel8quoridor13QuoridorState9SetPlayerENS0_4MoveENS0_14QuoridorPlayerEi(ptr noundef nonnull align 8 dereferenceable(228) %0, i64 %.sroa.07.0.copyload, i64 %.sroa.28.0.copyload, i8 noundef zeroext 1, i32 noundef 5)
  %26 = load i32, ptr %19, align 4
  %27 = add nsw i32 %26, -1
  %28 = getelementptr inbounds nuw i8, ptr %0, i64 136
  %29 = load ptr, ptr %28, align 8
  %30 = getelementptr inbounds nuw i8, ptr %29, i64 4
  store i32 %27, ptr %30, align 4
  br label %59

31:                                               ; preds = %2
  %32 = getelementptr inbounds nuw i8, ptr %0, i64 204
  %33 = load i32, ptr %32, align 4
  %34 = mul nsw i32 %33, %6
  %.sroa.2.0.insert.ext.i45 = zext i32 %6 to i64
  %.sroa.2.0.insert.shift.i46 = shl nuw i64 %.sroa.2.0.insert.ext.i45, 32
  %.sroa.5.8.insert.ext.i49 = zext i32 %33 to i64
  %.sroa.5.8.insert.shift.i50 = shl nuw i64 %.sroa.5.8.insert.ext.i49, 32
  %.sroa.3.8.insert.ext.i51 = zext i32 %34 to i64
  %.sroa.3.8.insert.insert.i52 = or disjoint i64 %.sroa.5.8.insert.shift.i50, %.sroa.3.8.insert.ext.i51
  %35 = getelementptr inbounds nuw i8, ptr %0, i64 160
  %36 = load ptr, ptr %35, align 8
  %37 = getelementptr inbounds nuw i8, ptr %36, i64 32
  store i64 %.sroa.2.0.insert.shift.i46, ptr %37, align 4
  %.sroa.26.0..sroa_idx = getelementptr inbounds nuw i8, ptr %36, i64 40
  store i64 %.sroa.3.8.insert.insert.i52, ptr %.sroa.26.0..sroa_idx, align 4
  %38 = load ptr, ptr %35, align 8
  %39 = getelementptr inbounds nuw i8, ptr %38, i64 32
  %.sroa.03.0.copyload = load i64, ptr %39, align 4
  %.sroa.24.0..sroa_idx = getelementptr inbounds nuw i8, ptr %38, i64 40
  %.sroa.24.0.copyload = load i64, ptr %.sroa.24.0..sroa_idx, align 4
  tail call void @_ZN10open_spiel8quoridor13QuoridorState9SetPlayerENS0_4MoveENS0_14QuoridorPlayerEi(ptr noundef nonnull align 8 dereferenceable(228) %0, i64 %.sroa.03.0.copyload, i64 %.sroa.24.0.copyload, i8 noundef zeroext 2, i32 noundef 5)
  %40 = load i32, ptr %32, align 4
  %41 = add nsw i32 %40, -1
  %42 = getelementptr inbounds nuw i8, ptr %0, i64 136
  %43 = load ptr, ptr %42, align 8
  %44 = getelementptr inbounds nuw i8, ptr %43, i64 8
  store i32 %41, ptr %44, align 4
  br label %59

45:                                               ; preds = %2
  %46 = getelementptr inbounds nuw i8, ptr %0, i64 204
  %47 = load i32, ptr %46, align 4
  %48 = add nsw i32 %47, -1
  %49 = mul nsw i32 %47, %6
  %50 = add nsw i32 %49, %48
  %.sroa.2.0.insert.ext.i54 = zext i32 %6 to i64
  %.sroa.2.0.insert.shift.i55 = shl nuw i64 %.sroa.2.0.insert.ext.i54, 32
  %.sroa.0.0.insert.ext.i56 = zext i32 %48 to i64
  %.sroa.0.0.insert.insert.i57 = or disjoint i64 %.sroa.2.0.insert.shift.i55, %.sroa.0.0.insert.ext.i56
  %.sroa.5.8.insert.ext.i59 = zext i32 %47 to i64
  %.sroa.5.8.insert.shift.i60 = shl nuw i64 %.sroa.5.8.insert.ext.i59, 32
  %.sroa.3.8.insert.ext.i61 = zext i32 %50 to i64
  %.sroa.3.8.insert.insert.i62 = or disjoint i64 %.sroa.5.8.insert.shift.i60, %.sroa.3.8.insert.ext.i61
  %51 = getelementptr inbounds nuw i8, ptr %0, i64 160
  %52 = load ptr, ptr %51, align 8
  %53 = getelementptr inbounds nuw i8, ptr %52, i64 48
  store i64 %.sroa.0.0.insert.insert.i57, ptr %53, align 4
  %.sroa.22.0..sroa_idx = getelementptr inbounds nuw i8, ptr %52, i64 56
  store i64 %.sroa.3.8.insert.insert.i62, ptr %.sroa.22.0..sroa_idx, align 4
  %54 = load ptr, ptr %51, align 8
  %55 = getelementptr inbounds nuw i8, ptr %54, i64 48
  %.sroa.0.0.copyload = load i64, ptr %55, align 4
  %.sroa.2.0..sroa_idx = getelementptr inbounds nuw i8, ptr %54, i64 56
  %.sroa.2.0.copyload = load i64, ptr %.sroa.2.0..sroa_idx, align 4
  tail call void @_ZN10open_spiel8quoridor13QuoridorState9SetPlayerENS0_4MoveENS0_14QuoridorPlayerEi(ptr noundef nonnull align 8 dereferenceable(228) %0, i64 %.sroa.0.0.copyload, i64 %.sroa.2.0.copyload, i8 noundef zeroext 3, i32 noundef 5)
  %56 = getelementptr inbounds nuw i8, ptr %0, i64 136
  %57 = load ptr, ptr %56, align 8
  %58 = getelementptr inbounds nuw i8, ptr %57, i64 12
  store i32 0, ptr %58, align 4
  br label %59

59:                                               ; preds = %2, %45, %31, %18, %7
  ret void
}